target datalayout = "e-m:e-p270:32:32-p271:32:32-p272:64:64-i64:64-i128:128-f80:128-n8:16:32:64-S128"
target triple = "x86_64-pc-linux-gnu"

; Function Attrs: nounwind uwtable
define internal void @maxinplace16_fun(ptr noundef %0, ptr noundef %1, i32 noundef %2) #0 {
  %4 = alloca ptr, align 8
  %5 = alloca ptr, align 8
  %6 = alloca i32, align 4
  %7 = alloca ptr, align 8
  %8 = alloca ptr, align 8
  %9 = alloca i32, align 4
  store ptr %0, ptr %4, align 8, !tbaa !72
  store ptr %1, ptr %5, align 8, !tbaa !72
  store i32 %2, ptr %6, align 4, !tbaa !24
  call void @llvm.lifetime.start.p0(i64 8, ptr %7) #12
  %10 = load ptr, ptr %4, align 8, !tbaa !72
  store ptr %10, ptr %7, align 8, !tbaa !136
  call void @llvm.lifetime.start.p0(i64 8, ptr %8) #12
  %11 = load ptr, ptr %5, align 8, !tbaa !72
  store ptr %11, ptr %8, align 8, !tbaa !136
  call void @llvm.lifetime.start.p0(i64 4, ptr %9) #12
  store i32 0, ptr %9, align 4, !tbaa !24
  br label %12

12:                                               ; preds = %52, %3
  %13 = load i32, ptr %9, align 4, !tbaa !24
  %14 = load i32, ptr %6, align 4, !tbaa !24
  %15 = icmp slt i32 %13, %14
  br i1 %15, label %17, label %16

16:                                               ; preds = %12
  call void @llvm.lifetime.end.p0(i64 4, ptr %9) #12
  br label %55

17:                                               ; preds = %12
  %18 = load ptr, ptr %7, align 8, !tbaa !136
  %19 = load i32, ptr %9, align 4, !tbaa !24
  %20 = sext i32 %19 to i64
  %21 = getelementptr inbounds i16, ptr %18, i64 %20
  %22 = load i16, ptr %21, align 2, !tbaa !138
  %23 = zext i16 %22 to i32
  %24 = load ptr, ptr %8, align 8, !tbaa !136
  %25 = load i32, ptr %9, align 4, !tbaa !24
  %26 = sext i32 %25 to i64
  %27 = getelementptr inbounds i16, ptr %24, i64 %26
  %28 = load i16, ptr %27, align 2, !tbaa !138
  %29 = zext i16 %28 to i32
  %30 = icmp sgt i32 %23, %29
  br i1 %30, label %31, label %38

31:                                               ; preds = %17
  %32 = load ptr, ptr %7, align 8, !tbaa !136
  %33 = load i32, ptr %9, align 4, !tbaa !24
  %34 = sext i32 %33 to i64
  %35 = getelementptr inbounds i16, ptr %32, i64 %34
  %36 = load i16, ptr %35, align 2, !tbaa !138
  %37 = zext i16 %36 to i32
  br label %45

38:                                               ; preds = %17
  %39 = load ptr, ptr %8, align 8, !tbaa !136
  %40 = load i32, ptr %9, align 4, !tbaa !24
  %41 = sext i32 %40 to i64
  %42 = getelementptr inbounds i16, ptr %39, i64 %41
  %43 = load i16, ptr %42, align 2, !tbaa !138
  %44 = zext i16 %43 to i32
  br label %45

45:                                               ; preds = %38, %31
  %46 = phi i32 [ %37, %31 ], [ %44, %38 ]
  %47 = trunc i32 %46 to i16
  %48 = load ptr, ptr %7, align 8, !tbaa !136
  %49 = load i32, ptr %9, align 4, !tbaa !24
  %50 = sext i32 %49 to i64
  %51 = getelementptr inbounds i16, ptr %48, i64 %50
  store i16 %47, ptr %51, align 2, !tbaa !138
  br label %52

52:                                               ; preds = %45
  %53 = load i32, ptr %9, align 4, !tbaa !24
  %54 = add nsw i32 %53, 1
  store i32 %54, ptr %9, align 4, !tbaa !24
  br label %12, !llvm.loop !146

55:                                               ; preds = %16
  call void @llvm.lifetime.end.p0(i64 8, ptr %8) #12
  call void @llvm.lifetime.end.p0(i64 8, ptr %7) #12
  ret void
}